target datalayout = "e-m:e-p270:32:32-p271:32:32-p272:64:64-i64:64-i128:128-f80:128-n8:16:32:64-S128"
target triple = "x86_64-pc-linux-gnu"

%struct.hb_object_header_t = type { %struct.hb_reference_count_t, %struct.hb_atomic_int_t, %struct.hb_atomic_ptr_t }
%struct.hb_reference_count_t = type { %struct.hb_atomic_int_t }
%struct.hb_atomic_int_t = type { i32 }
%struct.hb_atomic_ptr_t = type { ptr }
%struct.hb_segment_properties_t = type { i32, i32, ptr, ptr, ptr }
%struct.hb_buffer_t = type <{ %struct.hb_object_header_t, ptr, i32, i32, i32, i32, i32, i32, %struct.hb_segment_properties_t, i8, i8, i8, i8, i32, i32, i32, i32, [4 x i8], ptr, ptr, ptr, [2 x [5 x i32]], [2 x i32], i8, i8, [2 x i8], i32, i32, i32, ptr, ptr, ptr, i32, [4 x i8] }>

; Function Attrs: mustprogress nounwind uwtable
define internal noundef ptr @_ZL9hb_memsetPvij(ptr noundef %0, i32 noundef %1, i32 noundef %2) #0 {
  %4 = alloca ptr, align 8
  %5 = alloca ptr, align 8
  %6 = alloca i32, align 4
  %7 = alloca i32, align 4
  store ptr %0, ptr %5, align 8
  store i32 %1, ptr %6, align 4
  store i32 %2, ptr %7, align 4
  %8 = load i32, ptr %7, align 4
  %9 = icmp ne i32 %8, 0
  br i1 %9, label %12, label %10

10:                                               ; preds = %3
  %11 = load ptr, ptr %5, align 8
  store ptr %11, ptr %4, align 8
  br label %18

12:                                               ; preds = %3
  %13 = load ptr, ptr %5, align 8
  %14 = load i32, ptr %6, align 4
  %15 = trunc i32 %14 to i8
  %16 = load i32, ptr %7, align 4
  %17 = zext i32 %16 to i64
  call void @llvm.memset.p0.i64(ptr align 1 %13, i8 %15, i64 %17, i1 false)
  store ptr %13, ptr %4, align 8
  br label %18

18:                                               ; preds = %12, %10
  %19 = load ptr, ptr %4, align 8
  ret ptr %19
}

; Function Attrs: mustprogress uwtable
define hidden void @_ZN11hb_buffer_t15clear_positionsEv(ptr noundef nonnull align 8 dereferenceable(220) %0) #1 align 2 {
  %2 = alloca ptr, align 8
  store ptr %0, ptr %2, align 8
  %3 = load ptr, ptr %2, align 8
  %4 = getelementptr inbounds %struct.hb_buffer_t, ptr %3, i32 0, i32 11
  store i8 0, ptr %4, align 2
  %5 = getelementptr inbounds %struct.hb_buffer_t, ptr %3, i32 0, i32 12
  store i8 1, ptr %5, align 1
  %6 = getelementptr inbounds %struct.hb_buffer_t, ptr %3, i32 0, i32 15
  store i32 0, ptr %6, align 4
  %7 = getelementptr inbounds %struct.hb_buffer_t, ptr %3, i32 0, i32 18
  %8 = load ptr, ptr %7, align 8
  %9 = getelementptr inbounds %struct.hb_buffer_t, ptr %3, i32 0, i32 19
  store ptr %8, ptr %9, align 8
  %10 = getelementptr inbounds %struct.hb_buffer_t, ptr %3, i32 0, i32 20
  %11 = load ptr, ptr %10, align 8
  %12 = getelementptr inbounds %struct.hb_buffer_t, ptr %3, i32 0, i32 14
  %13 = load i32, ptr %12, align 8
  %14 = zext i32 %13 to i64
  %15 = mul i64 20, %14
  %16 = trunc i64 %15 to i32
  %17 = call noundef ptr @_ZL9hb_memsetPvij(ptr noundef %11, i32 noundef 0, i32 noundef %16)
  ret void
}

; Function Attrs: mustprogress uwtable
define hidden ptr @hb_buffer_get_glyph_positions(ptr noundef %0, ptr noundef %1) #1 {
  %3 = alloca ptr, align 8
  %4 = alloca ptr, align 8
  %5 = alloca ptr, align 8
  store ptr %0, ptr %4, align 8
  store ptr %1, ptr %5, align 8
  %6 = load ptr, ptr %5, align 8
  %7 = icmp ne ptr %6, null
  br i1 %7, label %8, label %13

8:                                                ; preds = %2
  %9 = load ptr, ptr %4, align 8
  %10 = getelementptr inbounds %struct.hb_buffer_t, ptr %9, i32 0, i32 14
  %11 = load i32, ptr %10, align 8
  %12 = load ptr, ptr %5, align 8
  store i32 %11, ptr %12, align 4
  br label %13

13:                                               ; preds = %8, %2
  %14 = load ptr, ptr %4, align 8
  %15 = getelementptr inbounds %struct.hb_buffer_t, ptr %14, i32 0, i32 12
  %16 = load i8, ptr %15, align 1
  %17 = trunc i8 %16 to i1
  br i1 %17, label %26, label %18

18:                                               ; preds = %13
  %19 = load ptr, ptr %4, align 8
  %20 = getelementptr inbounds %struct.hb_buffer_t, ptr %19, i32 0, i32 32
  %21 = load i32, ptr %20, align 8
  %22 = icmp ne i32 %21, 0
  br i1 %22, label %23, label %24

23:                                               ; preds = %18
  store ptr null, ptr %3, align 8
  br label %30

24:                                               ; preds = %18
  %25 = load ptr, ptr %4, align 8
  call void @_ZN11hb_buffer_t15clear_positionsEv(ptr noundef nonnull align 8 dereferenceable(220) %25)
  br label %26

26:                                               ; preds = %24, %13
  %27 = load ptr, ptr %4, align 8
  %28 = getelementptr inbounds %struct.hb_buffer_t, ptr %27, i32 0, i32 20
  %29 = load ptr, ptr %28, align 8
  store ptr %29, ptr %3, align 8
  br label %30

30:                                               ; preds = %26, %23
  %31 = load ptr, ptr %3, align 8
  ret ptr %31
}