; Function Attrs: mustprogress nofree norecurse nosync nounwind willreturn memory(write, argmem: readwrite, inaccessiblemem: none) uwtable
define hidden ptr @hb_buffer_get_glyph_positions(ptr nocapture noundef %0, ptr noundef writeonly %1) local_unnamed_addr #9 {
  %.not = icmp eq ptr %1, null
  br i1 %.not, label %6, label %3

3:                                                ; preds = %2
  %4 = getelementptr inbounds i8, ptr %0, i64 88
  %5 = load i32, ptr %4, align 8
  store i32 %5, ptr %1, align 4
  br label %6

6:                                                ; preds = %3, %2
  %7 = getelementptr inbounds i8, ptr %0, i64 83
  %8 = load i8, ptr %7, align 1
  %9 = trunc i8 %8 to i1
  br i1 %9, label %_ZN11hb_buffer_t15clear_positionsEv.exit, label %10

10:                                               ; preds = %6
  %11 = getelementptr inbounds i8, ptr %0, i64 216
  %12 = load i32, ptr %11, align 8
  %.not9 = icmp eq i32 %12, 0
  br i1 %.not9, label %13, label %28

13:                                               ; preds = %10
  %14 = getelementptr inbounds i8, ptr %0, i64 82
  store i8 0, ptr %14, align 2
  store i8 1, ptr %7, align 1
  %15 = getelementptr inbounds i8, ptr %0, i64 92
  store i32 0, ptr %15, align 4
  %16 = getelementptr inbounds i8, ptr %0, i64 104
  %17 = load ptr, ptr %16, align 8
  %18 = getelementptr inbounds i8, ptr %0, i64 112
  store ptr %17, ptr %18, align 8
  %19 = getelementptr inbounds i8, ptr %0, i64 88
  %20 = load i32, ptr %19, align 8
  %21 = mul i32 %20, 20
  %.not.i.i = icmp eq i32 %21, 0
  br i1 %.not.i.i, label %_ZN11hb_buffer_t15clear_positionsEv.exit, label %22

22:                                               ; preds = %13
  %23 = getelementptr inbounds i8, ptr %0, i64 120
  %24 = load ptr, ptr %23, align 8
  %25 = zext i32 %21 to i64
  tail call void @llvm.memset.p0.i64(ptr align 1 %24, i8 0, i64 %25, i1 false)
  br label %_ZN11hb_buffer_t15clear_positionsEv.exit

_ZN11hb_buffer_t15clear_positionsEv.exit:         ; preds = %22, %13, %6
  %26 = getelementptr inbounds i8, ptr %0, i64 120
  %27 = load ptr, ptr %26, align 8
  br label %28

28:                                               ; preds = %10, %_ZN11hb_buffer_t15clear_positionsEv.exit
  %.0 = phi ptr [ %27, %_ZN11hb_buffer_t15clear_positionsEv.exit ], [ null, %10 ]
  ret ptr %.0
}